target datalayout = "e-m:e-p270:32:32-p271:32:32-p272:64:64-i64:64-i128:128-f80:128-n8:16:32:64-S128"
target triple = "x86_64-pc-linux-gnu"

@.str = private unnamed_addr constant [29 x i8] c"Out of memory, strdup failed\00", align 1

; Function Attrs: nounwind uwtable
define dso_local ptr @xstrdup(ptr noundef %0) #0 {
  %2 = alloca ptr, align 8
  %3 = alloca ptr, align 8
  store ptr %0, ptr %2, align 8, !tbaa !4
  call void @llvm.lifetime.start.p0(i64 8, ptr %3) #13
  %4 = load ptr, ptr %2, align 8, !tbaa !4
  %5 = call noalias ptr @strdup(ptr noundef %4) #13
  store ptr %5, ptr %3, align 8, !tbaa !4
  %6 = load ptr, ptr %3, align 8, !tbaa !4
  %7 = icmp ne ptr %6, null
  br i1 %7, label %9, label %8

8:                                                ; preds = %1
  call void (ptr, ...) @die(ptr noundef @.str) #14
  unreachable

9:                                                ; preds = %1
  %10 = load ptr, ptr %3, align 8, !tbaa !4
  call void @llvm.lifetime.end.p0(i64 8, ptr %3) #13
  ret ptr %10
}