; Function Attrs: nounwind uwtable
define dso_local noalias nonnull ptr @xstrdup(ptr noundef readonly captures(none) %0) local_unnamed_addr #0 {
  %2 = tail call noalias ptr @strdup(ptr noundef %0) #20
  %.not = icmp eq ptr %2, null
  br i1 %.not, label %3, label %4

3:                                                ; preds = %1
  tail call void (ptr, ...) @die(ptr noundef nonnull @.str) #21
  unreachable

4:                                                ; preds = %1
  ret ptr %2
}